target datalayout = "e-m:e-p270:32:32-p271:32:32-p272:64:64-i64:64-f80:128-n8:16:32:64-S128"
target triple = "x86_64-pc-linux-gnu"

@__const.main.alp = private unnamed_addr constant [27 x i8] c"ABCDEFGHIJKLMNOPQRSTUVWXYZ\00", align 16
@.str = private unnamed_addr constant [3 x i8] c"%d\00", align 1
@.str.1 = private unnamed_addr constant [6 x i8] c"%d %s\00", align 1
@.str.2 = private unnamed_addr constant [7 x i8] c"%c\0A%d\0A\00", align 1
@.str.3 = private unnamed_addr constant [4 x i8] c"%d\0A\00", align 1

; Function Attrs: noinline nounwind uwtable
define dso_local i32 @main() #0 {
  %1 = alloca i32, align 4
  %2 = alloca i32, align 4
  %3 = alloca i32, align 4
  %4 = alloca i32, align 4
  %5 = alloca i32, align 4
  %6 = alloca i32, align 4
  %7 = alloca [2000 x [30 x i8]], align 16
  %8 = alloca [27 x i8], align 16
  %9 = alloca [2000 x i32], align 16
  %10 = alloca [30 x i32], align 16
  store i32 0, i32* %1, align 4
  %11 = bitcast [27 x i8]* %8 to i8*
  call void @llvm.memcpy.p0i8.p0i8.i64(i8* align 16 %11, i8* align 16 getelementptr inbounds ([27 x i8], [27 x i8]* @__const.main.alp, i32 0, i32 0), i64 27, i1 false)
  %12 = bitcast [30 x i32]* %10 to i8*
  call void @llvm.memset.p0i8.i64(i8* align 16 %12, i8 0, i64 120, i1 false)
  %13 = call i32 (i8*, ...) @__isoc99_scanf(i8* getelementptr inbounds ([3 x i8], [3 x i8]* @.str, i64 0, i64 0), i32* %2)
  store i32 0, i32* %3, align 4
  br label %14

14:                                               ; preds = %27, %0
  %15 = load i32, i32* %3, align 4
  %16 = load i32, i32* %2, align 4
  %17 = icmp slt i32 %15, %16
  br i1 %17, label %18, label %30

18:                                               ; preds = %14
  %19 = load i32, i32* %3, align 4
  %20 = sext i32 %19 to i64
  %21 = getelementptr inbounds [2000 x i32], [2000 x i32]* %9, i64 0, i64 %20
  %22 = load i32, i32* %3, align 4
  %23 = sext i32 %22 to i64
  %24 = getelementptr inbounds [2000 x [30 x i8]], [2000 x [30 x i8]]* %7, i64 0, i64 %23
  %25 = getelementptr inbounds [30 x i8], [30 x i8]* %24, i64 0, i64 0
  %26 = call i32 (i8*, ...) @__isoc99_scanf(i8* getelementptr inbounds ([6 x i8], [6 x i8]* @.str.1, i64 0, i64 0), i32* %21, i8* %25)
  br label %27

27:                                               ; preds = %18
  %28 = load i32, i32* %3, align 4
  %29 = add nsw i32 %28, 1
  store i32 %29, i32* %3, align 4
  br label %14

30:                                               ; preds = %14
  store i32 0, i32* %3, align 4
  br label %31

31:                                               ; preds = %79, %30
  %32 = load i32, i32* %3, align 4
  %33 = icmp slt i32 %32, 26
  br i1 %33, label %34, label %82

34:                                               ; preds = %31
  store i32 0, i32* %5, align 4
  br label %35

35:                                               ; preds = %75, %34
  %36 = load i32, i32* %5, align 4
  %37 = load i32, i32* %2, align 4
  %38 = icmp slt i32 %36, %37
  br i1 %38, label %39, label %78

39:                                               ; preds = %35
  store i32 0, i32* %4, align 4
  br label %40

40:                                               ; preds = %71, %39
  %41 = load i32, i32* %4, align 4
  %42 = sext i32 %41 to i64
  %43 = load i32, i32* %5, align 4
  %44 = sext i32 %43 to i64
  %45 = getelementptr inbounds [2000 x [30 x i8]], [2000 x [30 x i8]]* %7, i64 0, i64 %44
  %46 = getelementptr inbounds [30 x i8], [30 x i8]* %45, i64 0, i64 0
  %47 = call i64 @strlen(i8* %46) #4
  %48 = icmp ult i64 %42, %47
  br i1 %48, label %49, label %74

49:                                               ; preds = %40
  %50 = load i32, i32* %5, align 4
  %51 = sext i32 %50 to i64
  %52 = getelementptr inbounds [2000 x [30 x i8]], [2000 x [30 x i8]]* %7, i64 0, i64 %51
  %53 = load i32, i32* %4, align 4
  %54 = sext i32 %53 to i64
  %55 = getelementptr inbounds [30 x i8], [30 x i8]* %52, i64 0, i64 %54
  %56 = load i8, i8* %55, align 1
  %57 = sext i8 %56 to i32
  %58 = load i32, i32* %3, align 4
  %59 = sext i32 %58 to i64
  %60 = getelementptr inbounds [27 x i8], [27 x i8]* %8, i64 0, i64 %59
  %61 = load i8, i8* %60, align 1
  %62 = sext i8 %61 to i32
  %63 = icmp eq i32 %57, %62
  br i1 %63, label %64, label %70

64:                                               ; preds = %49
  %65 = load i32, i32* %3, align 4
  %66 = sext i32 %65 to i64
  %67 = getelementptr inbounds [30 x i32], [30 x i32]* %10, i64 0, i64 %66
  %68 = load i32, i32* %67, align 4
  %69 = add nsw i32 %68, 1
  store i32 %69, i32* %67, align 4
  br label %74

70:                                               ; preds = %49
  br label %71

71:                                               ; preds = %70
  %72 = load i32, i32* %4, align 4
  %73 = add nsw i32 %72, 1
  store i32 %73, i32* %4, align 4
  br label %40

74:                                               ; preds = %64, %40
  br label %75

75:                                               ; preds = %74
  %76 = load i32, i32* %5, align 4
  %77 = add nsw i32 %76, 1
  store i32 %77, i32* %5, align 4
  br label %35

78:                                               ; preds = %35
  br label %79

79:                                               ; preds = %78
  %80 = load i32, i32* %3, align 4
  %81 = add nsw i32 %80, 1
  store i32 %81, i32* %3, align 4
  br label %31

82:                                               ; preds = %31
  %83 = getelementptr inbounds [30 x i32], [30 x i32]* %10, i64 0, i64 0
  %84 = load i32, i32* %83, align 16
  store i32 %84, i32* %6, align 4
  store i32 1, i32* %3, align 4
  br label %85

85:                                               ; preds = %101, %82
  %86 = load i32, i32* %3, align 4
  %87 = icmp slt i32 %86, 26
  br i1 %87, label %88, label %104

88:                                               ; preds = %85
  %89 = load i32, i32* %3, align 4
  %90 = sext i32 %89 to i64
  %91 = getelementptr inbounds [30 x i32], [30 x i32]* %10, i64 0, i64 %90
  %92 = load i32, i32* %91, align 4
  %93 = load i32, i32* %6, align 4
  %94 = icmp sgt i32 %92, %93
  br i1 %94, label %95, label %100

95:                                               ; preds = %88
  %96 = load i32, i32* %3, align 4
  %97 = sext i32 %96 to i64
  %98 = getelementptr inbounds [30 x i32], [30 x i32]* %10, i64 0, i64 %97
  %99 = load i32, i32* %98, align 4
  store i32 %99, i32* %6, align 4
  br label %100

100:                                              ; preds = %95, %88
  br label %101

101:                                              ; preds = %100
  %102 = load i32, i32* %3, align 4
  %103 = add nsw i32 %102, 1
  store i32 %103, i32* %3, align 4
  br label %85

104:                                              ; preds = %85
  store i32 0, i32* %3, align 4
  br label %105

105:                                              ; preds = %162, %104
  %106 = load i32, i32* %3, align 4
  %107 = icmp slt i32 %106, 26
  br i1 %107, label %108, label %165

108:                                              ; preds = %105
  %109 = load i32, i32* %3, align 4
  %110 = sext i32 %109 to i64
  %111 = getelementptr inbounds [30 x i32], [30 x i32]* %10, i64 0, i64 %110
  %112 = load i32, i32* %111, align 4
  %113 = load i32, i32* %6, align 4
  %114 = icmp eq i32 %112, %113
  br i1 %114, label %115, label %161

115:                                              ; preds = %108
  %116 = load i32, i32* %3, align 4
  %117 = sext i32 %116 to i64
  %118 = getelementptr inbounds [27 x i8], [27 x i8]* %8, i64 0, i64 %117
  %119 = load i8, i8* %118, align 1
  %120 = sext i8 %119 to i32
  %121 = load i32, i32* %6, align 4
  %122 = call i32 (i8*, ...) @printf(i8* getelementptr inbounds ([7 x i8], [7 x i8]* @.str.2, i64 0, i64 0), i32 %120, i32 %121)
  store i32 0, i32* %5, align 4
  br label %123

123:                                              ; preds = %157, %115
  %124 = load i32, i32* %5, align 4
  %125 = load i32, i32* %2, align 4
  %126 = icmp slt i32 %124, %125
  br i1 %126, label %127, label %160

127:                                              ; preds = %123
  store i32 0, i32* %4, align 4
  br label %128

128:                                              ; preds = %153, %127
  %129 = load i32, i32* %4, align 4
  %130 = icmp slt i32 %129, 27
  br i1 %130, label %131, label %156

131:                                              ; preds = %128
  %132 = load i32, i32* %5, align 4
  %133 = sext i32 %132 to i64
  %134 = getelementptr inbounds [2000 x [30 x i8]], [2000 x [30 x i8]]* %7, i64 0, i64 %133
  %135 = load i32, i32* %4, align 4
  %136 = sext i32 %135 to i64
  %137 = getelementptr inbounds [30 x i8], [30 x i8]* %134, i64 0, i64 %136
  %138 = load i8, i8* %137, align 1
  %139 = sext i8 %138 to i32
  %140 = load i32, i32* %3, align 4
  %141 = sext i32 %140 to i64
  %142 = getelementptr inbounds [27 x i8], [27 x i8]* %8, i64 0, i64 %141
  %143 = load i8, i8* %142, align 1
  %144 = sext i8 %143 to i32
  %145 = icmp eq i32 %139, %144
  br i1 %145, label %146, label %152

146:                                              ; preds = %131
  %147 = load i32, i32* %5, align 4
  %148 = sext i32 %147 to i64
  %149 = getelementptr inbounds [2000 x i32], [2000 x i32]* %9, i64 0, i64 %148
  %150 = load i32, i32* %149, align 4
  %151 = call i32 (i8*, ...) @printf(i8* getelementptr inbounds ([4 x i8], [4 x i8]* @.str.3, i64 0, i64 0), i32 %150)
  br label %156

152:                                              ; preds = %131
  br label %153

153:                                              ; preds = %152
  %154 = load i32, i32* %4, align 4
  %155 = add nsw i32 %154, 1
  store i32 %155, i32* %4, align 4
  br label %128

156:                                              ; preds = %146, %128
  br label %157

157:                                              ; preds = %156
  %158 = load i32, i32* %5, align 4
  %159 = add nsw i32 %158, 1
  store i32 %159, i32* %5, align 4
  br label %123

160:                                              ; preds = %123
  br label %161

161:                                              ; preds = %160, %108
  br label %162

162:                                              ; preds = %161
  %163 = load i32, i32* %3, align 4
  %164 = add nsw i32 %163, 1
  store i32 %164, i32* %3, align 4
  br label %105

165:                                              ; preds = %105
  ret i32 0
}